target datalayout = "e-m:e-p270:32:32-p271:32:32-p272:64:64-i64:64-i128:128-f80:128-n8:16:32:64-S128"
target triple = "x86_64-pc-linux-gnu"

%union.anon = type { %struct.QTailQLink }
%struct.QTailQLink = type { ptr, ptr }
%struct.QemuMutex = type { %union.pthread_mutex_t, i8 }
%union.pthread_mutex_t = type { %struct.__pthread_mutex_s }
%struct.__pthread_mutex_s = type { i32, i32, i32, i32, i32, i16, i16, %struct.__pthread_internal_list }
%struct.__pthread_internal_list = type { ptr, ptr }
%struct.BlockDriverState = type { i32, i8, i8, i8, i8, i8, ptr, ptr, ptr, %struct.anon, i8, [4096 x i8], [4096 x i8], [4096 x i8], [16 x i8], ptr, [4096 x i8], %struct.BlockLimits, i32, i32, i32, i32, [32 x i8], %union.anon.0, %union.anon.1, %union.anon.2, i32, [15 x %struct.anon.3], ptr, %struct.anon.4, ptr, ptr, %struct.anon.5, ptr, ptr, i32, ptr, i64, i64, %struct.QemuMutex, %struct.anon.6, %struct.Stat64, i32, i32, i32, i32, i32, i32, %struct.QemuMutex, %struct.anon.7, %struct.CoQueue, i8, i32, i8, %struct.CoMutex, ptr, ptr }
%struct.anon = type { ptr }
%struct.BlockLimits = type { i32, i64, i32, i64, i32, i32, i32, i64, i32, i64, i64, i32, i8, i32, i32, i32, i32, i32, i32, i32 }
%union.anon.0 = type { %struct.QTailQLink }
%union.anon.1 = type { %struct.QTailQLink }
%union.anon.2 = type { %struct.QTailQLink }
%struct.anon.3 = type { ptr }
%struct.anon.4 = type { ptr }
%struct.anon.5 = type { ptr }
%struct.anon.6 = type { ptr }
%struct.Stat64 = type { i64 }
%struct.anon.7 = type { ptr }
%struct.CoQueue = type { %struct.anon.8 }
%struct.anon.8 = type { ptr, ptr }
%struct.CoMutex = type { i32, ptr, %struct.anon.9, %struct.anon.9, i32, i32, ptr }
%struct.anon.9 = type { ptr }
%struct.QObjectBase_ = type { i32, i64 }
%struct.QObject = type { %struct.QObjectBase_ }

@monitor_bdrv_states = dso_local global %union.anon { %struct.QTailQLink { ptr null, ptr @monitor_bdrv_states } }, align 8
@.str = private unnamed_addr constant [22 x i8] c"qemu_in_main_thread()\00", align 1
@.str.1 = private unnamed_addr constant [19 x i8] c"../qemu/blockdev.c\00", align 1
@__PRETTY_FUNCTION__.bdrv_set_monitor_owned = private unnamed_addr constant [48 x i8] c"void bdrv_set_monitor_owned(BlockDriverState *)\00", align 1
@error_abort = external global ptr, align 8
@.str.115 = private unnamed_addr constant [10 x i8] c"node-name\00", align 1
@__func__.qmp_blockdev_add = private unnamed_addr constant [17 x i8] c"qmp_blockdev_add\00", align 1
@.str.121 = private unnamed_addr constant [48 x i8] c"'node-name' must be specified for the root node\00", align 1
@.str.207 = private unnamed_addr constant [59 x i8] c"QTYPE_NONE < obj->base.type && obj->base.type < QTYPE__MAX\00", align 1
@.str.208 = private unnamed_addr constant [104 x i8] c"/home/dtcxzyw/WorkSpace/Projects/compilers/llvm-opt-benchmark/bench/qemu/qemu/include/qobject/qobject.h\00", align 1
@__PRETTY_FUNCTION__.qobject_type = private unnamed_addr constant [36 x i8] c"QType qobject_type(const QObject *)\00", align 1

; Function Attrs: inlinehint nounwind sspstrong uwtable
define internal i32 @qobject_type(ptr noundef %0) #5 {
  %2 = alloca ptr, align 8
  store ptr %0, ptr %2, align 8
  %3 = load ptr, ptr %2, align 8
  %4 = getelementptr inbounds nuw %struct.QObject, ptr %3, i32 0, i32 0
  %5 = getelementptr inbounds nuw %struct.QObjectBase_, ptr %4, i32 0, i32 0
  %6 = load i32, ptr %5, align 8
  %7 = icmp ult i32 0, %6
  br i1 %7, label %8, label %15

8:                                                ; preds = %1
  %9 = load ptr, ptr %2, align 8
  %10 = getelementptr inbounds nuw %struct.QObject, ptr %9, i32 0, i32 0
  %11 = getelementptr inbounds nuw %struct.QObjectBase_, ptr %10, i32 0, i32 0
  %12 = load i32, ptr %11, align 8
  %13 = icmp ult i32 %12, 7
  br i1 %13, label %14, label %15

14:                                               ; preds = %8
  br label %16

15:                                               ; preds = %8, %1
  call void @__assert_fail(ptr noundef @.str.207, ptr noundef @.str.208, i32 noundef 126, ptr noundef @__PRETTY_FUNCTION__.qobject_type) #15
  unreachable

16:                                               ; preds = %14
  %17 = load ptr, ptr %2, align 8
  %18 = getelementptr inbounds nuw %struct.QObject, ptr %17, i32 0, i32 0
  %19 = getelementptr inbounds nuw %struct.QObjectBase_, ptr %18, i32 0, i32 0
  %20 = load i32, ptr %19, align 8
  ret i32 %20
}

; Function Attrs: nounwind sspstrong uwtable
define dso_local void @bdrv_set_monitor_owned(ptr noundef %0) #0 {
  %2 = alloca ptr, align 8
  store ptr %0, ptr %2, align 8
  br label %3

3:                                                ; preds = %1
  %4 = call zeroext i1 @qemu_in_main_thread()
  br i1 %4, label %5, label %6

5:                                                ; preds = %3
  br label %7

6:                                                ; preds = %3
  call void @__assert_fail(ptr noundef @.str, ptr noundef @.str.1, i32 noundef 73, ptr noundef @__PRETTY_FUNCTION__.bdrv_set_monitor_owned) #15
  unreachable

7:                                                ; preds = %5
  br label %8

8:                                                ; preds = %7
  br label %9

9:                                                ; preds = %8
  %10 = load ptr, ptr %2, align 8
  %11 = getelementptr inbounds nuw %struct.BlockDriverState, ptr %10, i32 0, i32 25
  store ptr null, ptr %11, align 8
  %12 = load ptr, ptr getelementptr inbounds nuw (%struct.QTailQLink, ptr @monitor_bdrv_states, i32 0, i32 1), align 8
  %13 = load ptr, ptr %2, align 8
  %14 = getelementptr inbounds nuw %struct.BlockDriverState, ptr %13, i32 0, i32 25
  %15 = getelementptr inbounds nuw %struct.QTailQLink, ptr %14, i32 0, i32 1
  store ptr %12, ptr %15, align 8
  %16 = load ptr, ptr %2, align 8
  %17 = load ptr, ptr getelementptr inbounds nuw (%struct.QTailQLink, ptr @monitor_bdrv_states, i32 0, i32 1), align 8
  %18 = getelementptr inbounds nuw %struct.QTailQLink, ptr %17, i32 0, i32 0
  store ptr %16, ptr %18, align 8
  %19 = load ptr, ptr %2, align 8
  %20 = getelementptr inbounds nuw %struct.BlockDriverState, ptr %19, i32 0, i32 25
  store ptr %20, ptr getelementptr inbounds nuw (%struct.QTailQLink, ptr @monitor_bdrv_states, i32 0, i32 1), align 8
  br label %21

21:                                               ; preds = %9
  ret void
}

; Function Attrs: inlinehint nounwind sspstrong uwtable
define internal ptr @qobject_check_type(ptr noundef %0, i32 noundef %1) #5 {
  %3 = alloca ptr, align 8
  %4 = alloca ptr, align 8
  %5 = alloca i32, align 4
  store ptr %0, ptr %4, align 8
  store i32 %1, ptr %5, align 4
  %6 = load ptr, ptr %4, align 8
  %7 = icmp ne ptr %6, null
  br i1 %7, label %8, label %15

8:                                                ; preds = %2
  %9 = load ptr, ptr %4, align 8
  %10 = call i32 @qobject_type(ptr noundef %9)
  %11 = load i32, ptr %5, align 4
  %12 = icmp eq i32 %10, %11
  br i1 %12, label %13, label %15

13:                                               ; preds = %8
  %14 = load ptr, ptr %4, align 8
  store ptr %14, ptr %3, align 8
  br label %16

15:                                               ; preds = %8, %2
  store ptr null, ptr %3, align 8
  br label %16

16:                                               ; preds = %15, %13
  %17 = load ptr, ptr %3, align 8
  ret ptr %17
}

; Function Attrs: nounwind sspstrong uwtable
define dso_local void @qmp_blockdev_add(ptr noundef %0, ptr noundef %1) #0 {
  %3 = alloca ptr, align 8
  %4 = alloca ptr, align 8
  %5 = alloca ptr, align 8
  %6 = alloca ptr, align 8
  %7 = alloca ptr, align 8
  %8 = alloca ptr, align 8
  store ptr %0, ptr %3, align 8
  store ptr %1, ptr %4, align 8
  call void @llvm.lifetime.start.p0(i64 8, ptr %5) #16
  store ptr null, ptr %5, align 8, !annotation !4
  call void @llvm.lifetime.start.p0(i64 8, ptr %6) #16
  store ptr null, ptr %6, align 8, !annotation !4
  call void @llvm.lifetime.start.p0(i64 8, ptr %7) #16
  %9 = call ptr @qobject_output_visitor_new(ptr noundef %6)
  store ptr %9, ptr %7, align 8
  call void @llvm.lifetime.start.p0(i64 8, ptr %8) #16
  store ptr null, ptr %8, align 8, !annotation !4
  %10 = load ptr, ptr %7, align 8
  %11 = call zeroext i1 @visit_type_BlockdevOptions(ptr noundef %10, ptr noundef null, ptr noundef %3, ptr noundef @error_abort)
  %12 = load ptr, ptr %7, align 8
  call void @visit_complete(ptr noundef %12, ptr noundef %6)
  %13 = load ptr, ptr %6, align 8
  %14 = call ptr @qobject_check_type(ptr noundef %13, i32 noundef 4)
  store ptr %14, ptr %8, align 8
  %15 = load ptr, ptr %8, align 8
  call void @qdict_flatten(ptr noundef %15)
  %16 = load ptr, ptr %8, align 8
  %17 = call ptr @qdict_get_try_str(ptr noundef %16, ptr noundef @.str.115)
  %18 = icmp ne ptr %17, null
  br i1 %18, label %21, label %19

19:                                               ; preds = %2
  %20 = load ptr, ptr %4, align 8
  call void (ptr, ptr, i32, ptr, ptr, ...) @error_setg_internal(ptr noundef %20, ptr noundef @.str.1, i32 noundef 3376, ptr noundef @__func__.qmp_blockdev_add, ptr noundef @.str.121)
  br label %30

21:                                               ; preds = %2
  %22 = load ptr, ptr %8, align 8
  %23 = load ptr, ptr %4, align 8
  %24 = call ptr @bds_tree_init(ptr noundef %22, ptr noundef %23)
  store ptr %24, ptr %5, align 8
  %25 = load ptr, ptr %5, align 8
  %26 = icmp ne ptr %25, null
  br i1 %26, label %28, label %27

27:                                               ; preds = %21
  br label %30

28:                                               ; preds = %21
  %29 = load ptr, ptr %5, align 8
  call void @bdrv_set_monitor_owned(ptr noundef %29)
  br label %30

30:                                               ; preds = %28, %27, %19
  %31 = load ptr, ptr %7, align 8
  call void @visit_free(ptr noundef %31)
  call void @llvm.lifetime.end.p0(i64 8, ptr %8) #16
  call void @llvm.lifetime.end.p0(i64 8, ptr %7) #16
  call void @llvm.lifetime.end.p0(i64 8, ptr %6) #16
  call void @llvm.lifetime.end.p0(i64 8, ptr %5) #16
  ret void
}