; Function Attrs: nounwind sspstrong uwtable
define dso_local void @qmp_blockdev_add(ptr noundef %0, ptr noundef %1) local_unnamed_addr #0 {
  %3 = alloca ptr, align 8
  %4 = alloca ptr, align 8
  store ptr %0, ptr %3, align 8
  call void @llvm.lifetime.start.p0(i64 8, ptr nonnull %4) #14
  store ptr null, ptr %4, align 8, !annotation !10
  %5 = call ptr @qobject_output_visitor_new(ptr noundef nonnull %4) #14
  %6 = call zeroext i1 @visit_type_BlockdevOptions(ptr noundef %5, ptr noundef null, ptr noundef nonnull %3, ptr noundef nonnull @error_abort) #14
  call void @visit_complete(ptr noundef %5, ptr noundef nonnull %4) #14
  %7 = load ptr, ptr %4, align 8
  %.not.i = icmp eq ptr %7, null
  br i1 %.not.i, label %12, label %8

8:                                                ; preds = %2
  %.val.i = load i32, ptr %7, align 8
  %9 = add i32 %.val.i, -1
  %or.cond.i.i = icmp ult i32 %9, 6
  br i1 %or.cond.i.i, label %qobject_type.exit.i, label %10

10:                                               ; preds = %8
  call void @__assert_fail(ptr noundef nonnull @.str.207, ptr noundef nonnull @.str.208, i32 noundef 126, ptr noundef nonnull @__PRETTY_FUNCTION__.qobject_type) #15
  unreachable

qobject_type.exit.i:                              ; preds = %8
  %11 = icmp eq i32 %.val.i, 4
  br i1 %11, label %qobject_check_type.exit, label %12

12:                                               ; preds = %qobject_type.exit.i, %2
  br label %qobject_check_type.exit

qobject_check_type.exit:                          ; preds = %qobject_type.exit.i, %12
  %.0.i = phi ptr [ null, %12 ], [ %7, %qobject_type.exit.i ]
  call void @qdict_flatten(ptr noundef %.0.i) #14
  %13 = call ptr @qdict_get_try_str(ptr noundef %.0.i, ptr noundef nonnull @.str.115) #14
  %.not = icmp eq ptr %13, null
  br i1 %.not, label %14, label %15

14:                                               ; preds = %qobject_check_type.exit
  call void (ptr, ptr, i32, ptr, ptr, ...) @error_setg_internal(ptr noundef %1, ptr noundef nonnull @.str.1, i32 noundef 3376, ptr noundef nonnull @__func__.qmp_blockdev_add, ptr noundef nonnull @.str.121) #14
  br label %23

15:                                               ; preds = %qobject_check_type.exit
  %16 = call ptr @bds_tree_init(ptr noundef %.0.i, ptr noundef %1)
  %.not10 = icmp eq ptr %16, null
  br i1 %.not10, label %23, label %17

17:                                               ; preds = %15
  %18 = call zeroext i1 @qemu_in_main_thread() #14
  br i1 %18, label %bdrv_set_monitor_owned.exit, label %19

19:                                               ; preds = %17
  call void @__assert_fail(ptr noundef nonnull @.str, ptr noundef nonnull @.str.1, i32 noundef 73, ptr noundef nonnull @__PRETTY_FUNCTION__.bdrv_set_monitor_owned) #15
  unreachable

bdrv_set_monitor_owned.exit:                      ; preds = %17
  %20 = getelementptr inbounds nuw i8, ptr %16, i64 16664
  store ptr null, ptr %20, align 8
  %21 = load ptr, ptr getelementptr inbounds nuw (i8, ptr @monitor_bdrv_states, i64 8), align 8
  %22 = getelementptr inbounds nuw i8, ptr %16, i64 16672
  store ptr %21, ptr %22, align 8
  store ptr %16, ptr %21, align 8
  store ptr %20, ptr getelementptr inbounds nuw (i8, ptr @monitor_bdrv_states, i64 8), align 8
  br label %23

23:                                               ; preds = %15, %bdrv_set_monitor_owned.exit, %14
  call void @visit_free(ptr noundef %5) #14
  call void @llvm.lifetime.end.p0(i64 8, ptr nonnull %4) #14
  ret void
}